target datalayout = "e-m:e-p270:32:32-p271:32:32-p272:64:64-i64:64-i128:128-f80:128-n8:16:32:64-S128"
target triple = "x86_64-unknown-linux-gnu"

; Function Attrs: inlinehint mustprogress nounwind uwtable
define linkonce_odr noundef double @_ZN8QuantLib7squaredIdEET_S1_(double noundef %x) #5 comdat {
entry:
  %x.addr = alloca double, align 8
  store double %x, ptr %x.addr, align 8, !tbaa !14
  %0 = load double, ptr %x.addr, align 8, !tbaa !14
  %1 = load double, ptr %x.addr, align 8, !tbaa !14
  %mul = fmul double %0, %1
  ret double %mul
}

; Function Attrs: inlinehint mustprogress nounwind uwtable
define linkonce_odr noundef double @_ZSt3powIdiEN9__gnu_cxx9__promoteIDTplcvNS1_IT_Xsr3std12__is_integerIS2_EE7__valueEE6__typeELi0EcvNS1_IT0_Xsr3std12__is_integerIS5_EE7__valueEE6__typeELi0EEXsr3std12__is_integerIS8_EE7__valueEE6__typeES2_S5_(double noundef %__x, i32 noundef %__y) #5 comdat {
entry:
  %__x.addr = alloca double, align 8
  %__y.addr = alloca i32, align 4
  store double %__x, ptr %__x.addr, align 8, !tbaa !14
  store i32 %__y, ptr %__y.addr, align 4, !tbaa !25
  %0 = load double, ptr %__x.addr, align 8, !tbaa !14
  %1 = load i32, ptr %__y.addr, align 4, !tbaa !25
  %conv = sitofp i32 %1 to double
  %call = call double @pow(double noundef %0, double noundef %conv) #14, !tbaa !25
  ret double %call
}

; Function Attrs: mustprogress uwtable
define internal noundef double @_ZN8QuantLib12_GLOBAL__N_15phi_vEddddddd(double noundef %S, double noundef %gamma, double noundef %H, double noundef %I, double noundef %rT, double noundef %bT, double noundef %v) #2 {
entry:
  %S.addr = alloca double, align 8
  %gamma.addr = alloca double, align 8
  %H.addr = alloca double, align 8
  %I.addr = alloca double, align 8
  %rT.addr = alloca double, align 8
  %bT.addr = alloca double, align 8
  %v.addr = alloca double, align 8
  %lsh = alloca double, align 8
  %lis = alloca double, align 8
  %sv = alloca double, align 8
  %er = alloca double, align 8
  store double %S, ptr %S.addr, align 8, !tbaa !14
  store double %gamma, ptr %gamma.addr, align 8, !tbaa !14
  store double %H, ptr %H.addr, align 8, !tbaa !14
  store double %I, ptr %I.addr, align 8, !tbaa !14
  store double %rT, ptr %rT.addr, align 8, !tbaa !14
  store double %bT, ptr %bT.addr, align 8, !tbaa !14
  store double %v, ptr %v.addr, align 8, !tbaa !14
  call void @llvm.lifetime.start.p0(i64 8, ptr %lsh) #14
  %0 = load double, ptr %S.addr, align 8, !tbaa !14
  %1 = load double, ptr %H.addr, align 8, !tbaa !14
  %div = fdiv double %0, %1
  %call = call double @log(double noundef %div) #14, !tbaa !25
  store double %call, ptr %lsh, align 8, !tbaa !14
  call void @llvm.lifetime.start.p0(i64 8, ptr %lis) #14
  %2 = load double, ptr %I.addr, align 8, !tbaa !14
  %3 = load double, ptr %S.addr, align 8, !tbaa !14
  %div1 = fdiv double %2, %3
  %call2 = call double @log(double noundef %div1) #14, !tbaa !25
  store double %call2, ptr %lis, align 8, !tbaa !14
  call void @llvm.lifetime.start.p0(i64 8, ptr %sv) #14
  %4 = load double, ptr %v.addr, align 8, !tbaa !14
  %call3 = call double @sqrt(double noundef %4) #14, !tbaa !25
  store double %call3, ptr %sv, align 8, !tbaa !14
  call void @llvm.lifetime.start.p0(i64 8, ptr %er) #14
  %5 = load double, ptr %bT.addr, align 8, !tbaa !14
  %6 = load double, ptr %v.addr, align 8, !tbaa !14
  %neg = fneg double %6
  %7 = call double @llvm.fmuladd.f64(double 2.000000e+00, double %5, double %neg)
  %8 = load double, ptr %gamma.addr, align 8, !tbaa !14
  %mul = fmul double 2.000000e+00, %8
  %9 = load double, ptr %v.addr, align 8, !tbaa !14
  %10 = call double @llvm.fmuladd.f64(double %mul, double %9, double %7)
  %11 = load double, ptr %lis, align 8, !tbaa !14
  %12 = call double @llvm.fmuladd.f64(double 4.000000e+00, double %11, double %10)
  %13 = load double, ptr %lsh, align 8, !tbaa !14
  %14 = call double @llvm.fmuladd.f64(double 2.000000e+00, double %13, double %12)
  %15 = load double, ptr %sv, align 8, !tbaa !14
  %mul7 = fmul double 0x4006A09E667F3BCD, %15
  %div8 = fdiv double %14, %mul7
  %call9 = call double @erfc(double noundef %div8) #14, !tbaa !25
  store double %call9, ptr %er, align 8, !tbaa !14
  %16 = load double, ptr %bT.addr, align 8, !tbaa !14
  %17 = load double, ptr %gamma.addr, align 8, !tbaa !14
  %18 = load double, ptr %rT.addr, align 8, !tbaa !14
  %neg11 = fneg double %18
  %19 = call double @llvm.fmuladd.f64(double %16, double %17, double %neg11)
  %20 = load double, ptr %gamma.addr, align 8, !tbaa !14
  %add = fadd double -1.000000e+00, %20
  %21 = load double, ptr %gamma.addr, align 8, !tbaa !14
  %mul12 = fmul double %add, %21
  %22 = load double, ptr %v.addr, align 8, !tbaa !14
  %mul13 = fmul double %mul12, %22
  %div14 = fdiv double %mul13, 2.000000e+00
  %add15 = fadd double %19, %div14
  %call16 = call double @exp(double noundef %add15) #14, !tbaa !25
  %23 = load double, ptr %gamma.addr, align 8, !tbaa !14
  %add17 = fadd double -1.000000e+00, %23
  %24 = load double, ptr %gamma.addr, align 8, !tbaa !14
  %mul18 = fmul double %add17, %24
  %25 = load double, ptr %I.addr, align 8, !tbaa !14
  %26 = load double, ptr %bT.addr, align 8, !tbaa !14
  %27 = load double, ptr %v.addr, align 8, !tbaa !14
  %neg20 = fneg double %27
  %28 = call double @llvm.fmuladd.f64(double 2.000000e+00, double %26, double %neg20)
  %29 = load double, ptr %gamma.addr, align 8, !tbaa !14
  %mul21 = fmul double 2.000000e+00, %29
  %30 = load double, ptr %v.addr, align 8, !tbaa !14
  %31 = call double @llvm.fmuladd.f64(double %mul21, double %30, double %28)
  %32 = load double, ptr %lsh, align 8, !tbaa !14
  %33 = call double @llvm.fmuladd.f64(double 2.000000e+00, double %32, double %31)
  %34 = load double, ptr %sv, align 8, !tbaa !14
  %mul24 = fmul double 0x4006A09E667F3BCD, %34
  %div25 = fdiv double %33, %mul24
  %call26 = call double @erfc(double noundef %div25) #14, !tbaa !25
  %35 = load double, ptr %I.addr, align 8, !tbaa !14
  %36 = load double, ptr %S.addr, align 8, !tbaa !14
  %div28 = fdiv double %35, %36
  %37 = load double, ptr %gamma.addr, align 8, !tbaa !14
  %38 = load double, ptr %bT.addr, align 8, !tbaa !14
  %39 = load double, ptr %v.addr, align 8, !tbaa !14
  %div29 = fdiv double %38, %39
  %add30 = fadd double %37, %div29
  %mul31 = fmul double 2.000000e+00, %add30
  %call32 = call double @pow(double noundef %div28, double noundef %mul31) #14, !tbaa !25
  %40 = load double, ptr %S.addr, align 8, !tbaa !14
  %mul33 = fmul double %call32, %40
  %41 = load double, ptr %er, align 8, !tbaa !14
  %mul34 = fmul double %mul33, %41
  %neg35 = fneg double %mul34
  %42 = call double @llvm.fmuladd.f64(double %25, double %call26, double %neg35)
  %mul36 = fmul double %mul18, %42
  %43 = load double, ptr %I.addr, align 8, !tbaa !14
  %mul37 = fmul double 2.000000e+00, %43
  %div38 = fdiv double %mul36, %mul37
  %44 = load double, ptr %bT.addr, align 8, !tbaa !14
  %mul39 = fmul double 2.000000e+00, %44
  %45 = load double, ptr %I.addr, align 8, !tbaa !14
  %46 = load double, ptr %S.addr, align 8, !tbaa !14
  %div40 = fdiv double %45, %46
  %47 = load double, ptr %gamma.addr, align 8, !tbaa !14
  %48 = call double @llvm.fmuladd.f64(double 2.000000e+00, double %47, double -1.000000e+00)
  %49 = load double, ptr %bT.addr, align 8, !tbaa !14
  %mul42 = fmul double 2.000000e+00, %49
  %50 = load double, ptr %v.addr, align 8, !tbaa !14
  %div43 = fdiv double %mul42, %50
  %add44 = fadd double %48, %div43
  %call45 = call double @pow(double noundef %div40, double noundef %add44) #14, !tbaa !25
  %mul46 = fmul double %mul39, %call45
  %51 = load double, ptr %er, align 8, !tbaa !14
  %mul47 = fmul double %mul46, %51
  %52 = load double, ptr %lis, align 8, !tbaa !14
  %mul48 = fmul double %mul47, %52
  %53 = load double, ptr %v.addr, align 8, !tbaa !14
  %54 = load double, ptr %v.addr, align 8, !tbaa !14
  %mul49 = fmul double %53, %54
  %div50 = fdiv double %mul48, %mul49
  %add51 = fadd double %div38, %div50
  %55 = load double, ptr %bT.addr, align 8, !tbaa !14
  %56 = load double, ptr %v.addr, align 8, !tbaa !14
  %57 = call double @llvm.fmuladd.f64(double 2.000000e+00, double %55, double %56)
  %58 = load double, ptr %gamma.addr, align 8, !tbaa !14
  %mul53 = fmul double 2.000000e+00, %58
  %59 = load double, ptr %v.addr, align 8, !tbaa !14
  %neg55 = fneg double %mul53
  %60 = call double @llvm.fmuladd.f64(double %neg55, double %59, double %57)
  %61 = load double, ptr %lsh, align 8, !tbaa !14
  %62 = call double @llvm.fmuladd.f64(double 2.000000e+00, double %61, double %60)
  %63 = load double, ptr %bT.addr, align 8, !tbaa !14
  %64 = load double, ptr %gamma.addr, align 8, !tbaa !14
  %65 = call double @llvm.fmuladd.f64(double 2.000000e+00, double %64, double -1.000000e+00)
  %66 = load double, ptr %v.addr, align 8, !tbaa !14
  %mul59 = fmul double %65, %66
  %67 = call double @llvm.fmuladd.f64(double 2.000000e+00, double %63, double %mul59)
  %68 = load double, ptr %lsh, align 8, !tbaa !14
  %69 = call double @llvm.fmuladd.f64(double 2.000000e+00, double %68, double %67)
  %call61 = call noundef double @_ZSt3powIdiEN9__gnu_cxx9__promoteIDTplcvNS1_IT_Xsr3std12__is_integerIS2_EE7__valueEE6__typeELi0EcvNS1_IT0_Xsr3std12__is_integerIS5_EE7__valueEE6__typeELi0EEXsr3std12__is_integerIS8_EE7__valueEE6__typeES2_S5_(double noundef %69, i32 noundef 2)
  %70 = load double, ptr %v.addr, align 8, !tbaa !14
  %mul62 = fmul double 8.000000e+00, %70
  %div63 = fdiv double %call61, %mul62
  %call64 = call double @exp(double noundef %div63) #14, !tbaa !25
  %mul65 = fmul double 2.000000e+00, %call64
  %mul66 = fmul double %mul65, 0x3FF6A09E667F3BCD
  %mul67 = fmul double %mul66, 0x3FFC5BF891B4EF6B
  %71 = load double, ptr %v.addr, align 8, !tbaa !14
  %mul68 = fmul double %mul67, %71
  %72 = load double, ptr %sv, align 8, !tbaa !14
  %mul69 = fmul double %mul68, %72
  %div70 = fdiv double %62, %mul69
  %add71 = fadd double %add51, %div70
  %73 = load double, ptr %I.addr, align 8, !tbaa !14
  %74 = load double, ptr %S.addr, align 8, !tbaa !14
  %div72 = fdiv double %73, %74
  %75 = load double, ptr %gamma.addr, align 8, !tbaa !14
  %76 = call double @llvm.fmuladd.f64(double 2.000000e+00, double %75, double -1.000000e+00)
  %77 = load double, ptr %bT.addr, align 8, !tbaa !14
  %mul74 = fmul double 2.000000e+00, %77
  %78 = load double, ptr %v.addr, align 8, !tbaa !14
  %div75 = fdiv double %mul74, %78
  %add76 = fadd double %76, %div75
  %call77 = call double @pow(double noundef %div72, double noundef %add76) #14, !tbaa !25
  %79 = load double, ptr %bT.addr, align 8, !tbaa !14
  %80 = load double, ptr %v.addr, align 8, !tbaa !14
  %81 = call double @llvm.fmuladd.f64(double 2.000000e+00, double %79, double %80)
  %82 = load double, ptr %gamma.addr, align 8, !tbaa !14
  %mul79 = fmul double 2.000000e+00, %82
  %83 = load double, ptr %v.addr, align 8, !tbaa !14
  %neg81 = fneg double %mul79
  %84 = call double @llvm.fmuladd.f64(double %neg81, double %83, double %81)
  %85 = load double, ptr %lis, align 8, !tbaa !14
  %86 = call double @llvm.fmuladd.f64(double 4.000000e+00, double %85, double %84)
  %87 = load double, ptr %lsh, align 8, !tbaa !14
  %88 = call double @llvm.fmuladd.f64(double 2.000000e+00, double %87, double %86)
  %mul84 = fmul double %call77, %88
  %89 = load double, ptr %bT.addr, align 8, !tbaa !14
  %90 = load double, ptr %v.addr, align 8, !tbaa !14
  %neg86 = fneg double %90
  %91 = call double @llvm.fmuladd.f64(double 2.000000e+00, double %89, double %neg86)
  %92 = load double, ptr %gamma.addr, align 8, !tbaa !14
  %mul87 = fmul double 2.000000e+00, %92
  %93 = load double, ptr %v.addr, align 8, !tbaa !14
  %94 = call double @llvm.fmuladd.f64(double %mul87, double %93, double %91)
  %95 = load double, ptr %lis, align 8, !tbaa !14
  %96 = call double @llvm.fmuladd.f64(double 4.000000e+00, double %95, double %94)
  %97 = load double, ptr %lsh, align 8, !tbaa !14
  %98 = call double @llvm.fmuladd.f64(double 2.000000e+00, double %97, double %96)
  %call91 = call noundef double @_ZN8QuantLib7squaredIdEET_S1_(double noundef %98)
  %99 = load double, ptr %v.addr, align 8, !tbaa !14
  %mul92 = fmul double 8.000000e+00, %99
  %div93 = fdiv double %call91, %mul92
  %call94 = call double @exp(double noundef %div93) #14, !tbaa !25
  %mul95 = fmul double 2.000000e+00, %call94
  %mul96 = fmul double %mul95, 0x3FF6A09E667F3BCD
  %mul97 = fmul double %mul96, 0x3FFC5BF891B4EF6B
  %100 = load double, ptr %v.addr, align 8, !tbaa !14
  %mul98 = fmul double %mul97, %100
  %101 = load double, ptr %sv, align 8, !tbaa !14
  %mul99 = fmul double %mul98, %101
  %div100 = fdiv double %mul84, %mul99
  %sub = fsub double %add71, %div100
  %mul101 = fmul double %call16, %sub
  %div102 = fdiv double %mul101, 2.000000e+00
  call void @llvm.lifetime.end.p0(i64 8, ptr %er) #14
  call void @llvm.lifetime.end.p0(i64 8, ptr %sv) #14
  call void @llvm.lifetime.end.p0(i64 8, ptr %lis) #14
  call void @llvm.lifetime.end.p0(i64 8, ptr %lsh) #14
  ret double %div102
}