; Function Attrs: mustprogress nounwind uwtable
define internal fastcc noundef double @_ZN8QuantLib12_GLOBAL__N_15phi_vEddddddd(double noundef %S, double noundef %gamma, double noundef %H, double noundef %I, double noundef %rT, double noundef %bT, double noundef %v) unnamed_addr #10 {
entry:
  %div = fdiv double %S, %H
  %call = tail call double @log(double noundef %div) #28, !tbaa !46
  %div1 = fdiv double %I, %S
  %call2 = tail call double @log(double noundef %div1) #28, !tbaa !46
  %call3 = tail call double @sqrt(double noundef %v) #28, !tbaa !46
  %neg = fneg double %v
  %0 = tail call double @llvm.fmuladd.f64(double %bT, double 2.000000e+00, double %neg)
  %mul = fmul double %gamma, 2.000000e+00
  %1 = tail call double @llvm.fmuladd.f64(double %mul, double %v, double %0)
  %2 = tail call double @llvm.fmuladd.f64(double %call2, double 4.000000e+00, double %1)
  %3 = tail call double @llvm.fmuladd.f64(double %call, double 2.000000e+00, double %2)
  %mul7 = fmul double %call3, 0x4006A09E667F3BCD
  %div8 = fdiv double %3, %mul7
  %call9 = tail call double @erfc(double noundef %div8) #28, !tbaa !46
  %neg11 = fneg double %rT
  %4 = tail call double @llvm.fmuladd.f64(double %bT, double %gamma, double %neg11)
  %add = fadd double %gamma, -1.000000e+00
  %mul12 = fmul double %gamma, %add
  %mul13 = fmul double %mul12, %v
  %div14 = fmul double %mul13, 5.000000e-01
  %add15 = fadd double %4, %div14
  %call16 = tail call double @exp(double noundef %add15) #28, !tbaa !46
  %5 = tail call double @llvm.fmuladd.f64(double %call, double 2.000000e+00, double %1)
  %div25 = fdiv double %5, %mul7
  %call26 = tail call double @erfc(double noundef %div25) #28, !tbaa !46
  %div29 = fdiv double %bT, %v
  %add30 = fadd double %gamma, %div29
  %mul31 = fmul double %add30, 2.000000e+00
  %call32 = tail call double @pow(double noundef %div1, double noundef %mul31) #28, !tbaa !46
  %mul33 = fmul double %S, %call32
  %6 = fneg double %call9
  %neg35 = fmul double %mul33, %6
  %7 = tail call double @llvm.fmuladd.f64(double %I, double %call26, double %neg35)
  %mul36 = fmul double %mul12, %7
  %mul37 = fmul double %I, 2.000000e+00
  %div38 = fdiv double %mul36, %mul37
  %mul39 = fmul double %bT, 2.000000e+00
  %8 = tail call double @llvm.fmuladd.f64(double %gamma, double 2.000000e+00, double -1.000000e+00)
  %div43 = fdiv double %mul39, %v
  %add44 = fadd double %8, %div43
  %call45 = tail call double @pow(double noundef %div1, double noundef %add44) #28, !tbaa !46
  %mul46 = fmul double %mul39, %call45
  %mul47 = fmul double %call9, %mul46
  %mul48 = fmul double %call2, %mul47
  %mul49 = fmul double %v, %v
  %div50 = fdiv double %mul48, %mul49
  %add51 = fadd double %div38, %div50
  %9 = tail call double @llvm.fmuladd.f64(double %bT, double 2.000000e+00, double %v)
  %neg55 = fneg double %mul
  %10 = tail call double @llvm.fmuladd.f64(double %neg55, double %v, double %9)
  %11 = tail call double @llvm.fmuladd.f64(double %call, double 2.000000e+00, double %10)
  %mul59 = fmul double %8, %v
  %12 = tail call double @llvm.fmuladd.f64(double %bT, double 2.000000e+00, double %mul59)
  %13 = tail call double @llvm.fmuladd.f64(double %call, double 2.000000e+00, double %12)
  %square = fmul double %13, %13
  %mul62 = fmul double %v, 8.000000e+00
  %div63 = fdiv double %square, %mul62
  %call64 = tail call double @exp(double noundef %div63) #28, !tbaa !46
  %mul65 = fmul double %call64, 2.000000e+00
  %mul66 = fmul double %mul65, 0x3FF6A09E667F3BCD
  %mul67 = fmul double %mul66, 0x3FFC5BF891B4EF6B
  %mul68 = fmul double %v, %mul67
  %mul69 = fmul double %call3, %mul68
  %div70 = fdiv double %11, %mul69
  %add71 = fadd double %add51, %div70
  %call77 = tail call double @pow(double noundef %div1, double noundef %add44) #28, !tbaa !46
  %14 = tail call double @llvm.fmuladd.f64(double %call2, double 4.000000e+00, double %10)
  %15 = tail call double @llvm.fmuladd.f64(double %call, double 2.000000e+00, double %14)
  %mul84 = fmul double %15, %call77
  %mul.i = fmul double %3, %3
  %div93 = fdiv double %mul.i, %mul62
  %call94 = tail call double @exp(double noundef %div93) #28, !tbaa !46
  %mul95 = fmul double %call94, 2.000000e+00
  %mul96 = fmul double %mul95, 0x3FF6A09E667F3BCD
  %mul97 = fmul double %mul96, 0x3FFC5BF891B4EF6B
  %mul98 = fmul double %v, %mul97
  %mul99 = fmul double %call3, %mul98
  %div100 = fdiv double %mul84, %mul99
  %sub = fsub double %add71, %div100
  %mul101 = fmul double %call16, %sub
  %div102 = fmul double %mul101, 5.000000e-01
  ret double %div102
}